target datalayout = "e-m:e-p270:32:32-p271:32:32-p272:64:64-i64:64-i128:128-f80:128-n8:16:32:64-S128"
target triple = "x86_64-pc-linux-gnu"

%struct._zend_executor_globals = type { %struct._zval_struct, %struct._zval_struct, [32 x ptr], ptr, ptr, %struct._zend_array, %struct._zend_array, ptr, i32, i32, ptr, ptr, ptr, ptr, ptr, ptr, i64, ptr, ptr, i32, i32, i64, i32, i32, i32, i8, i8, %struct.zend_atomic_bool_s, %struct.zend_atomic_bool_s, ptr, i64, ptr, ptr, %struct._zend_array, %struct._zend_array, i32, i8, %struct._zval_struct, %struct._zval_struct, %struct._zend_stack, %struct._zend_stack, %struct._zend_stack, ptr, i32, i32, i64, ptr, ptr, ptr, %struct._zend_objects_store, ptr, ptr, ptr, [3 x %struct._zend_op], ptr, i8, i8, i64, i32, i32, ptr, [16 x %struct._HashTableIterator], ptr, %union._zend_function, %struct._zend_op, %struct._zend_array, i64, %struct.zend_get_gc_buffer, ptr, ptr, ptr, i64, i8, i32, ptr, ptr, i64, %struct._zend_call_stack, i64, i64, [6 x ptr] }
%struct.zend_atomic_bool_s = type { i8 }
%struct._zval_struct = type { %union._zend_value, %union.anon, %union.anon.2 }
%union._zend_value = type { i64 }
%union.anon = type { i32 }
%union.anon.2 = type { i32 }
%struct._zend_stack = type { i32, i32, i32, ptr }
%struct._zend_objects_store = type { ptr, i32, i32, i32 }
%struct._HashTableIterator = type { ptr, i32, i32 }
%union._zend_function = type { %struct._zend_op_array }
%struct._zend_op_array = type { i8, [3 x i8], i32, ptr, ptr, ptr, i32, i32, ptr, ptr, ptr, ptr, i32, i32, i32, i32, ptr, ptr, ptr, ptr, ptr, i32, i32, ptr, ptr, ptr, i32, i32, i32, i32, ptr, ptr, [6 x ptr] }
%struct._zend_op = type { ptr, %union._znode_op, %union._znode_op, %union._znode_op, i32, i32, i8, i8, i8, i8 }
%union._znode_op = type { i32 }
%struct._zend_array = type { %struct._zend_refcounted_h, %union.anon.4, i32, %union.anon.6, i32, i32, i32, i32, i64, ptr }
%struct._zend_refcounted_h = type { i32, %union.anon.3 }
%union.anon.3 = type { i32 }
%union.anon.4 = type { i32 }
%union.anon.6 = type { ptr }
%struct.zend_get_gc_buffer = type { ptr, ptr, ptr }
%struct._zend_call_stack = type { ptr, i64 }
%struct._zend_resource = type { %struct._zend_refcounted_h, i64, i32, ptr }

@executor_globals = external global %struct._zend_executor_globals, align 8

; Function Attrs: nounwind uwtable
define ptr @zend_register_persistent_resource_ex(ptr noundef %0, ptr noundef %1, i32 noundef %2) #0 {
  %4 = alloca ptr, align 8
  %5 = alloca i32, align 4
  %6 = alloca ptr, align 8
  %7 = alloca ptr, align 8
  %8 = alloca i32, align 4
  %9 = alloca ptr, align 8
  %10 = alloca %struct._zval_struct, align 8
  %11 = alloca ptr, align 8
  %12 = alloca ptr, align 8
  store ptr %0, ptr %6, align 8
  store ptr %1, ptr %7, align 8
  store i32 %2, ptr %8, align 4
  br label %13

13:                                               ; preds = %3
  %14 = call noalias ptr @malloc(i64 noundef 32) #12
  store ptr %14, ptr %11, align 8
  %15 = load ptr, ptr %11, align 8
  %16 = getelementptr inbounds %struct._zend_resource, ptr %15, i32 0, i32 0
  store ptr %16, ptr %4, align 8
  store i32 1, ptr %5, align 4
  %17 = load i32, ptr %5, align 4
  %18 = load ptr, ptr %4, align 8
  store i32 %17, ptr %18, align 4
  %19 = load ptr, ptr %11, align 8
  %20 = getelementptr inbounds %struct._zend_resource, ptr %19, i32 0, i32 0
  %21 = getelementptr inbounds %struct._zend_refcounted_h, ptr %20, i32 0, i32 1
  store i32 153, ptr %21, align 4
  %22 = load ptr, ptr %11, align 8
  %23 = getelementptr inbounds %struct._zend_resource, ptr %22, i32 0, i32 1
  store i64 -1, ptr %23, align 8
  %24 = load i32, ptr %8, align 4
  %25 = load ptr, ptr %11, align 8
  %26 = getelementptr inbounds %struct._zend_resource, ptr %25, i32 0, i32 2
  store i32 %24, ptr %26, align 8
  %27 = load ptr, ptr %7, align 8
  %28 = load ptr, ptr %11, align 8
  %29 = getelementptr inbounds %struct._zend_resource, ptr %28, i32 0, i32 3
  store ptr %27, ptr %29, align 8
  store ptr %10, ptr %12, align 8
  %30 = load ptr, ptr %11, align 8
  %31 = load ptr, ptr %12, align 8
  %32 = getelementptr inbounds %struct._zval_struct, ptr %31, i32 0, i32 0
  store ptr %30, ptr %32, align 8
  %33 = load ptr, ptr %12, align 8
  %34 = getelementptr inbounds %struct._zval_struct, ptr %33, i32 0, i32 1
  store i32 265, ptr %34, align 8
  br label %35

35:                                               ; preds = %13
  br label %36

36:                                               ; preds = %35
  br label %37

37:                                               ; preds = %36
  br label %38

38:                                               ; preds = %37
  br label %39

39:                                               ; preds = %38
  %40 = load ptr, ptr %6, align 8
  %41 = call ptr @zend_hash_update(ptr noundef getelementptr inbounds (%struct._zend_executor_globals, ptr @executor_globals, i32 0, i32 34), ptr noundef %40, ptr noundef %10)
  store ptr %41, ptr %9, align 8
  %42 = load ptr, ptr %9, align 8
  %43 = getelementptr inbounds %struct._zval_struct, ptr %42, i32 0, i32 0
  %44 = load ptr, ptr %43, align 8
  ret ptr %44
}