; Function Attrs: nounwind uwtable
define ptr @zend_register_persistent_resource_ex(ptr noundef %0, ptr noundef %1, i32 noundef %2) local_unnamed_addr #0 {
  %4 = alloca %struct._zval_struct, align 8
  %5 = tail call noalias dereferenceable_or_null(32) ptr @malloc(i64 noundef 32) #15
  store i32 1, ptr %5, align 4
  %6 = getelementptr inbounds i8, ptr %5, i64 4
  store i32 153, ptr %6, align 4
  %7 = getelementptr inbounds i8, ptr %5, i64 8
  store i64 -1, ptr %7, align 8
  %8 = getelementptr inbounds i8, ptr %5, i64 16
  store i32 %2, ptr %8, align 8
  %9 = getelementptr inbounds i8, ptr %5, i64 24
  store ptr %1, ptr %9, align 8
  store ptr %5, ptr %4, align 8
  %10 = getelementptr inbounds i8, ptr %4, i64 8
  store i32 265, ptr %10, align 8
  %11 = call ptr @zend_hash_update(ptr noundef nonnull getelementptr inbounds (%struct._zend_executor_globals, ptr @executor_globals, i64 0, i32 34), ptr noundef %0, ptr noundef nonnull %4) #14
  %12 = load ptr, ptr %11, align 8
  ret ptr %12
}